; Function Attrs: mustprogress nounwind uwtable
define hidden void @_ZN14ClassPrelinker14resolve_stringE18constantPoolHandleiP10JavaThread(ptr noundef %0, i32 noundef %1, ptr noundef %2) local_unnamed_addr #1 align 2 {
  %4 = tail call noundef zeroext i1 @_ZN9CDSConfig15is_dumping_heapEv() #10
  br i1 %4, label %5, label %9

5:                                                ; preds = %3
  %6 = load ptr, ptr %0, align 8
  %7 = tail call noundef i32 @_ZN12ConstantPool18cp_to_object_indexEi(ptr noundef nonnull align 8 dereferenceable(68) %6, i32 noundef %1) #10
  %8 = tail call noundef ptr @_ZN12ConstantPool14string_at_implERK18constantPoolHandleiiP10JavaThread(ptr noundef nonnull align 8 dereferenceable(16) %0, i32 noundef %1, i32 noundef %7, ptr noundef %2) #10
  br label %9

9:                                                ; preds = %5, %3
  ret void
}